; Function Attrs: mustprogress uwtable
define void @_ZN5faiss11IndexHNSWSQC2Ev(ptr noundef nonnull align 8 dereferenceable(5202) initializes((0, 12), (16, 26), (28, 36)) %0) unnamed_addr #1 align 2 personality ptr @__gxx_personality_v0 {
  %2 = getelementptr inbounds nuw i8, ptr %0, i64 8
  store i32 0, ptr %2, align 8, !tbaa !54
  %3 = getelementptr inbounds nuw i8, ptr %0, i64 16
  store i64 0, ptr %3, align 8, !tbaa !46
  %4 = getelementptr inbounds nuw i8, ptr %0, i64 24
  store i8 0, ptr %4, align 8, !tbaa !47
  %5 = getelementptr inbounds nuw i8, ptr %0, i64 25
  store i8 1, ptr %5, align 1, !tbaa !43
  %6 = getelementptr inbounds nuw i8, ptr %0, i64 28
  store i32 1, ptr %6, align 4, !tbaa !98
  %7 = getelementptr inbounds nuw i8, ptr %0, i64 32
  store float 0.000000e+00, ptr %7, align 8, !tbaa !142
  store ptr getelementptr inbounds nuw inrange(-16, 184) (i8, ptr @_ZTVN5faiss9IndexHNSWE, i64 16), ptr %0, align 8, !tbaa !41
  %8 = getelementptr inbounds nuw i8, ptr %0, i64 40
  invoke void @_ZN5faiss4HNSWC1Ei(ptr noundef nonnull align 8 dereferenceable(5142) %8, i32 noundef 32)
          to label %_ZN5faiss9IndexHNSWC2EiiNS_10MetricTypeE.exit unwind label %9

9:                                                ; preds = %1
  %10 = landingpad { ptr, i32 }
          cleanup
  tail call void @_ZN5faiss5IndexD2Ev(ptr noundef nonnull align 8 dereferenceable(5202) %0) #13
  resume { ptr, i32 } %10

_ZN5faiss9IndexHNSWC2EiiNS_10MetricTypeE.exit:    ; preds = %1
  %11 = getelementptr inbounds nuw i8, ptr %0, i64 5184
  store i8 0, ptr %11, align 8, !tbaa !124
  %12 = getelementptr inbounds nuw i8, ptr %0, i64 5192
  store ptr null, ptr %12, align 8, !tbaa !4
  %13 = getelementptr inbounds nuw i8, ptr %0, i64 5200
  store i8 1, ptr %13, align 8, !tbaa !70
  %14 = getelementptr inbounds nuw i8, ptr %0, i64 5201
  store i8 0, ptr %14, align 1, !tbaa !143
  store ptr getelementptr inbounds nuw inrange(-16, 184) (i8, ptr @_ZTVN5faiss11IndexHNSWSQE, i64 16), ptr %0, align 8, !tbaa !41
  ret void
}